; Function Attrs: nofree norecurse nosync nounwind memory(readwrite, inaccessiblemem: none) uwtable
define internal noundef i32 @smear_slice8(ptr noundef readonly captures(none) %0, ptr noundef readonly captures(none) %1, i32 noundef %2, i32 noundef %3) #4 {
  %5 = getelementptr inbounds nuw i8, ptr %0, i64 72
  %6 = load ptr, ptr %5, align 8, !tbaa !33
  %7 = getelementptr inbounds nuw i8, ptr %6, i64 120
  %8 = load ptr, ptr %7, align 8, !tbaa !36
  %9 = getelementptr inbounds nuw i8, ptr %8, i64 68
  %10 = load i32, ptr %9, align 4, !tbaa !40
  %11 = getelementptr inbounds nuw i8, ptr %8, i64 72
  %12 = load i32, ptr %11, align 8, !tbaa !40
  %13 = getelementptr inbounds nuw i8, ptr %6, i64 8
  %14 = load i32, ptr %13, align 8, !tbaa !80
  %15 = getelementptr inbounds nuw i8, ptr %6, i64 12
  %16 = load i32, ptr %15, align 4, !tbaa !81
  %17 = getelementptr inbounds nuw i8, ptr %6, i64 16
  %18 = load i32, ptr %17, align 8, !tbaa !82
  %19 = getelementptr inbounds nuw i8, ptr %6, i64 20
  %20 = load i32, ptr %19, align 4, !tbaa !83
  %21 = getelementptr inbounds nuw i8, ptr %6, i64 72
  %22 = load i32, ptr %21, align 4, !tbaa !40
  %23 = getelementptr inbounds nuw i8, ptr %6, i64 88
  %24 = load i32, ptr %23, align 4, !tbaa !40
  %25 = mul nsw i32 %22, %2
  %26 = sdiv i32 %25, %3
  %27 = add nsw i32 %2, 1
  %28 = mul nsw i32 %22, %27
  %29 = sdiv i32 %28, %3
  %30 = getelementptr inbounds nuw i8, ptr %8, i64 8
  %31 = load ptr, ptr %30, align 8, !tbaa !39
  %32 = getelementptr inbounds nuw i8, ptr %8, i64 16
  %33 = load ptr, ptr %32, align 8, !tbaa !39
  %34 = icmp slt i32 %26, %29
  br i1 %34, label %.lr.ph74, label %._crit_edge75

.lr.ph74:                                         ; preds = %4
  %35 = getelementptr inbounds nuw i8, ptr %1, i64 72
  %36 = load i32, ptr %35, align 8, !tbaa !40
  %37 = getelementptr inbounds nuw i8, ptr %1, i64 68
  %38 = load i32, ptr %37, align 4, !tbaa !40
  %39 = add nsw i32 %22, -1
  %40 = icmp sgt i32 %24, 0
  %41 = add nsw i32 %24, -1
  %42 = sext i32 %38 to i64
  %43 = sext i32 %36 to i64
  br i1 %40, label %.lr.ph.us.preheader, label %._crit_edge75

.lr.ph.us.preheader:                              ; preds = %.lr.ph74
  %44 = getelementptr inbounds nuw i8, ptr %1, i64 8
  %45 = load ptr, ptr %44, align 8, !tbaa !39
  %46 = mul nsw i32 %26, %38
  %47 = sext i32 %46 to i64
  %48 = getelementptr inbounds i8, ptr %45, i64 %47
  %49 = getelementptr inbounds nuw i8, ptr %1, i64 16
  %50 = load ptr, ptr %49, align 8, !tbaa !39
  %51 = mul nsw i32 %26, %36
  %52 = sext i32 %51 to i64
  %53 = getelementptr inbounds i8, ptr %50, i64 %52
  %54 = sext i32 %14 to i64
  %55 = sext i32 %18 to i64
  %wide.trip.count = zext nneg i32 %24 to i64
  br label %.lr.ph.us

.lr.ph.us:                                        ; preds = %.lr.ph.us.preheader, %._crit_edge.us
  %.05972.us = phi ptr [ %79, %._crit_edge.us ], [ %48, %.lr.ph.us.preheader ]
  %.06071.us = phi ptr [ %80, %._crit_edge.us ], [ %53, %.lr.ph.us.preheader ]
  %.06170.us = phi i32 [ %81, %._crit_edge.us ], [ %26, %.lr.ph.us.preheader ]
  %56 = sub nsw i32 %.06170.us, %16
  %57 = icmp slt i32 %56, 0
  %..i.us = tail call i32 @llvm.smin.i32(i32 %56, i32 %39)
  %.0.i.us = select i1 %57, i32 0, i32 %..i.us
  %58 = mul nsw i32 %.0.i.us, %10
  %59 = sub nsw i32 %.06170.us, %20
  %60 = icmp slt i32 %59, 0
  %..i63.us = tail call i32 @llvm.smin.i32(i32 %59, i32 %39)
  %.0.i64.us = select i1 %60, i32 0, i32 %..i63.us
  %61 = mul nsw i32 %.0.i64.us, %12
  br label %62

62:                                               ; preds = %.lr.ph.us, %62
  %indvars.iv = phi i64 [ 0, %.lr.ph.us ], [ %indvars.iv.next, %62 ]
  %63 = sub nsw i64 %indvars.iv, %54
  %64 = icmp slt i64 %63, 0
  %65 = trunc nsw i64 %63 to i32
  %..i65.us = tail call i32 @llvm.smin.i32(i32 %65, i32 %41)
  %.0.i66.us = select i1 %64, i32 0, i32 %..i65.us
  %66 = add nsw i32 %.0.i66.us, %58
  %67 = sext i32 %66 to i64
  %68 = getelementptr inbounds i8, ptr %31, i64 %67
  %69 = load i8, ptr %68, align 1, !tbaa !70
  %70 = getelementptr inbounds nuw i8, ptr %.05972.us, i64 %indvars.iv
  store i8 %69, ptr %70, align 1, !tbaa !70
  %71 = sub nsw i64 %indvars.iv, %55
  %72 = icmp slt i64 %71, 0
  %73 = trunc nsw i64 %71 to i32
  %..i67.us = tail call i32 @llvm.smin.i32(i32 %73, i32 %41)
  %.0.i68.us = select i1 %72, i32 0, i32 %..i67.us
  %74 = add nsw i32 %.0.i68.us, %61
  %75 = sext i32 %74 to i64
  %76 = getelementptr inbounds i8, ptr %33, i64 %75
  %77 = load i8, ptr %76, align 1, !tbaa !70
  %78 = getelementptr inbounds nuw i8, ptr %.06071.us, i64 %indvars.iv
  store i8 %77, ptr %78, align 1, !tbaa !70
  %indvars.iv.next = add nuw nsw i64 %indvars.iv, 1
  %exitcond.not = icmp eq i64 %indvars.iv.next, %wide.trip.count
  br i1 %exitcond.not, label %._crit_edge.us, label %62, !llvm.loop !90

._crit_edge.us:                                   ; preds = %62
  %79 = getelementptr inbounds i8, ptr %.05972.us, i64 %42
  %80 = getelementptr inbounds i8, ptr %.06071.us, i64 %43
  %81 = add nsw i32 %.06170.us, 1
  %exitcond78.not = icmp eq i32 %81, %29
  br i1 %exitcond78.not, label %._crit_edge75, label %.lr.ph.us, !llvm.loop !91

._crit_edge75:                                    ; preds = %._crit_edge.us, %.lr.ph74, %4
  ret i32 0
}